; Function Attrs: mustprogress uwtable
define void @_ZN2cv6ccalib13CustomPattern18refineKeypointsPosERKNS_3MatERSt6vectorINS_8KeyPointESaIS6_EE(ptr noundef nonnull readnone align 8 captures(none) dereferenceable(336) %0, ptr noundef nonnull align 8 dereferenceable(96) %1, ptr noundef nonnull readonly align 8 captures(none) dereferenceable(24) %2) local_unnamed_addr #3 align 2 personality ptr @__gxx_personality_v0 {
  %4 = alloca %"class.std::vector", align 8
  call void @llvm.lifetime.start.p0(i64 24, ptr nonnull %4) #24
  call void @llvm.memset.p0.i64(ptr noundef nonnull align 8 dereferenceable(24) %4, i8 0, i64 24, i1 false)
  invoke void @_ZN2cv6ccalib13CustomPattern16keypoints2pointsERKSt6vectorINS_8KeyPointESaIS3_EERS2_INS_6Point_IfEESaIS9_EE(ptr nonnull align 8 poison, ptr noundef nonnull align 8 dereferenceable(24) %2, ptr noundef nonnull align 8 dereferenceable(24) %4)
          to label %5 unwind label %25

5:                                                ; preds = %3
  invoke void @_ZN2cv6ccalib13CustomPattern15refinePointsPosERKNS_3MatERSt6vectorINS_6Point_IfEESaIS7_EE(ptr nonnull align 8 poison, ptr noundef nonnull align 8 dereferenceable(96) %1, ptr noundef nonnull align 8 dereferenceable(24) %4)
          to label %6 unwind label %25

6:                                                ; preds = %5
  %7 = getelementptr inbounds nuw i8, ptr %2, i64 8
  %8 = load ptr, ptr %7, align 8, !tbaa !80
  %9 = load ptr, ptr %2, align 8, !tbaa !81
  %.not.i = icmp eq ptr %8, %9
  br i1 %.not.i, label %_ZN2cv6ccalib13CustomPattern18updateKeypointsPosERSt6vectorINS_8KeyPointESaIS3_EERKS2_INS_6Point_IfEESaIS8_EE.exit, label %.lr.ph.i

.lr.ph.i:                                         ; preds = %6, %.lr.ph.i
  %10 = phi ptr [ %17, %.lr.ph.i ], [ %9, %6 ]
  %.06.i = phi i64 [ %15, %.lr.ph.i ], [ 0, %6 ]
  %11 = load ptr, ptr %4, align 8, !tbaa !61
  %12 = getelementptr inbounds nuw %"class.cv::Point_", ptr %11, i64 %.06.i
  %13 = getelementptr inbounds nuw %"class.cv::KeyPoint", ptr %10, i64 %.06.i
  %14 = load i64, ptr %12, align 4
  store i64 %14, ptr %13, align 4
  %15 = add nuw i64 %.06.i, 1
  %16 = load ptr, ptr %7, align 8, !tbaa !80
  %17 = load ptr, ptr %2, align 8, !tbaa !81
  %18 = ptrtoint ptr %16 to i64
  %19 = ptrtoint ptr %17 to i64
  %20 = sub i64 %18, %19
  %21 = sdiv exact i64 %20, 28
  %22 = icmp ult i64 %15, %21
  br i1 %22, label %.lr.ph.i, label %_ZN2cv6ccalib13CustomPattern18updateKeypointsPosERSt6vectorINS_8KeyPointESaIS3_EERKS2_INS_6Point_IfEESaIS8_EE.exit, !llvm.loop !82

_ZN2cv6ccalib13CustomPattern18updateKeypointsPosERSt6vectorINS_8KeyPointESaIS3_EERKS2_INS_6Point_IfEESaIS8_EE.exit: ; preds = %.lr.ph.i, %6
  %23 = load ptr, ptr %4, align 8, !tbaa !61
  %.not.i.i.i = icmp eq ptr %23, null
  br i1 %.not.i.i.i, label %_ZNSt6vectorIN2cv6Point_IfEESaIS2_EED2Ev.exit, label %24

24:                                               ; preds = %_ZN2cv6ccalib13CustomPattern18updateKeypointsPosERSt6vectorINS_8KeyPointESaIS3_EERKS2_INS_6Point_IfEESaIS8_EE.exit
  call void @_ZdlPv(ptr noundef nonnull %23) #26
  br label %_ZNSt6vectorIN2cv6Point_IfEESaIS2_EED2Ev.exit

_ZNSt6vectorIN2cv6Point_IfEESaIS2_EED2Ev.exit:    ; preds = %_ZN2cv6ccalib13CustomPattern18updateKeypointsPosERSt6vectorINS_8KeyPointESaIS3_EERKS2_INS_6Point_IfEESaIS8_EE.exit, %24
  call void @llvm.lifetime.end.p0(i64 24, ptr nonnull %4) #24
  ret void

25:                                               ; preds = %5, %3
  %26 = landingpad { ptr, i32 }
          cleanup
  %27 = load ptr, ptr %4, align 8, !tbaa !61
  %.not.i.i.i5 = icmp eq ptr %27, null
  br i1 %.not.i.i.i5, label %_ZNSt6vectorIN2cv6Point_IfEESaIS2_EED2Ev.exit6, label %28

28:                                               ; preds = %25
  call void @_ZdlPv(ptr noundef nonnull %27) #26
  br label %_ZNSt6vectorIN2cv6Point_IfEESaIS2_EED2Ev.exit6

_ZNSt6vectorIN2cv6Point_IfEESaIS2_EED2Ev.exit6:   ; preds = %25, %28
  call void @llvm.lifetime.end.p0(i64 24, ptr nonnull %4) #24
  resume { ptr, i32 } %26
}